target datalayout = "e-m:e-p270:32:32-p271:32:32-p272:64:64-i64:64-i128:128-f80:128-n8:16:32:64-S128"
target triple = "x86_64-pc-linux-gnu"

; Function Attrs: inlinehint mustprogress uwtable
define linkonce_odr noundef double @_ZN6icu_779ClockMath11floorDivideEdd(double noundef %0, double noundef %1) #8 comdat align 2 {
  %3 = alloca double, align 8
  %4 = alloca double, align 8
  store double %0, ptr %3, align 8, !tbaa !47
  store double %1, ptr %4, align 8, !tbaa !47
  %5 = load double, ptr %3, align 8, !tbaa !47
  %6 = load double, ptr %4, align 8, !tbaa !47
  %7 = fdiv double %5, %6
  %8 = call double @uprv_floor_77(double noundef %7)
  ret double %8
}

; Function Attrs: inlinehint mustprogress nounwind uwtable
define internal noundef signext i8 @_ZL9U_FAILURE10UErrorCode(i32 noundef %0) #4 {
  %2 = alloca i32, align 4
  store i32 %0, ptr %2, align 4, !tbaa !30
  %3 = load i32, ptr %2, align 4, !tbaa !30
  %4 = icmp sgt i32 %3, 0
  %5 = zext i1 %4 to i8
  ret i8 %5
}

; Function Attrs: mustprogress uwtable
define internal noundef double @_ZN6icu_7712_GLOBAL__N_112millisToDaysEPKNS_8TimeZoneEdR10UErrorCode(ptr noundef %0, double noundef %1, ptr noundef nonnull align 4 dereferenceable(4) %2) #0 {
  %4 = alloca double, align 8
  %5 = alloca ptr, align 8
  %6 = alloca double, align 8
  %7 = alloca ptr, align 8
  %8 = alloca i32, align 4
  %9 = alloca i32, align 4
  %10 = alloca i32, align 4
  store ptr %0, ptr %5, align 8, !tbaa !46
  store double %1, ptr %6, align 8, !tbaa !47
  store ptr %2, ptr %7, align 8, !tbaa !10
  %11 = load ptr, ptr %7, align 8, !tbaa !10
  %12 = load i32, ptr %11, align 4, !tbaa !30
  %13 = call noundef signext i8 @_ZL9U_FAILURE10UErrorCode(i32 noundef %12)
  %14 = icmp ne i8 %13, 0
  br i1 %14, label %15, label %16

15:                                               ; preds = %3
  store double 0.000000e+00, ptr %4, align 8
  br label %44

16:                                               ; preds = %3
  %17 = load ptr, ptr %5, align 8, !tbaa !46
  %18 = icmp ne ptr %17, null
  br i1 %18, label %19, label %40

19:                                               ; preds = %16
  call void @llvm.lifetime.start.p0(i64 4, ptr %8) #13
  call void @llvm.lifetime.start.p0(i64 4, ptr %9) #13
  %20 = load ptr, ptr %5, align 8, !tbaa !46
  %21 = load double, ptr %6, align 8, !tbaa !47
  %22 = load ptr, ptr %7, align 8, !tbaa !10
  %23 = load ptr, ptr %20, align 8, !tbaa !11
  %24 = getelementptr inbounds ptr, ptr %23, i64 6
  %25 = load ptr, ptr %24, align 8
  call void %25(ptr noundef nonnull align 8 dereferenceable(72) %20, double noundef %21, i8 noundef signext 0, ptr noundef nonnull align 4 dereferenceable(4) %8, ptr noundef nonnull align 4 dereferenceable(4) %9, ptr noundef nonnull align 4 dereferenceable(4) %22)
  %26 = load ptr, ptr %7, align 8, !tbaa !10
  %27 = load i32, ptr %26, align 4, !tbaa !30
  %28 = call noundef signext i8 @_ZL9U_FAILURE10UErrorCode(i32 noundef %27)
  %29 = icmp ne i8 %28, 0
  br i1 %29, label %30, label %31

30:                                               ; preds = %19
  store double 0.000000e+00, ptr %4, align 8
  store i32 1, ptr %10, align 4
  br label %39

31:                                               ; preds = %19
  %32 = load double, ptr %6, align 8, !tbaa !47
  %33 = load i32, ptr %8, align 4, !tbaa !29
  %34 = load i32, ptr %9, align 4, !tbaa !29
  %35 = add nsw i32 %33, %34
  %36 = sitofp i32 %35 to double
  %37 = fadd double %32, %36
  %38 = call noundef double @_ZN6icu_779ClockMath11floorDivideEdd(double noundef %37, double noundef 8.640000e+07)
  store double %38, ptr %4, align 8
  store i32 1, ptr %10, align 4
  br label %39

39:                                               ; preds = %31, %30
  call void @llvm.lifetime.end.p0(i64 4, ptr %9) #13
  call void @llvm.lifetime.end.p0(i64 4, ptr %8) #13
  br label %44

40:                                               ; preds = %16
  %41 = load double, ptr %6, align 8, !tbaa !47
  %42 = fadd double %41, 2.880000e+07
  %43 = call noundef double @_ZN6icu_779ClockMath11floorDivideEdd(double noundef %42, double noundef 8.640000e+07)
  store double %43, ptr %4, align 8
  br label %44

44:                                               ; preds = %40, %39, %15
  %45 = load double, ptr %4, align 8
  ret double %45
}