; Function Attrs: mustprogress uwtable
define internal fastcc noundef double @_ZN6icu_7712_GLOBAL__N_112millisToDaysEPKNS_8TimeZoneEdR10UErrorCode(ptr noundef %0, double noundef %1, ptr noundef nonnull align 4 dereferenceable(4) %2) unnamed_addr #0 {
  %4 = alloca i32, align 4
  %5 = alloca i32, align 4
  %6 = load i32, ptr %2, align 4, !tbaa !21
  %7 = icmp slt i32 %6, 1
  br i1 %7, label %8, label %28

8:                                                ; preds = %3
  %.not10 = icmp eq ptr %0, null
  br i1 %.not10, label %24, label %9

9:                                                ; preds = %8
  call void @llvm.lifetime.start.p0(i64 4, ptr nonnull %4) #8
  call void @llvm.lifetime.start.p0(i64 4, ptr nonnull %5) #8
  %10 = load ptr, ptr %0, align 8, !tbaa !3
  %11 = getelementptr inbounds nuw i8, ptr %10, i64 48
  %12 = load ptr, ptr %11, align 8
  call void %12(ptr noundef nonnull align 8 dereferenceable(72) %0, double noundef %1, i8 noundef signext 0, ptr noundef nonnull align 4 dereferenceable(4) %4, ptr noundef nonnull align 4 dereferenceable(4) %5, ptr noundef nonnull align 4 dereferenceable(4) %2)
  %13 = load i32, ptr %2, align 4, !tbaa !21
  %14 = icmp slt i32 %13, 1
  br i1 %14, label %15, label %23

15:                                               ; preds = %9
  %16 = load i32, ptr %4, align 4, !tbaa !20
  %17 = load i32, ptr %5, align 4, !tbaa !20
  %18 = add nsw i32 %17, %16
  %19 = sitofp i32 %18 to double
  %20 = fadd double %1, %19
  %21 = fdiv double %20, 8.640000e+07
  %22 = call noundef double @uprv_floor_77(double noundef %21)
  br label %23

23:                                               ; preds = %9, %15
  %.1 = phi double [ %22, %15 ], [ 0.000000e+00, %9 ]
  call void @llvm.lifetime.end.p0(i64 4, ptr nonnull %5) #8
  call void @llvm.lifetime.end.p0(i64 4, ptr nonnull %4) #8
  br label %28

24:                                               ; preds = %8
  %25 = fadd double %1, 2.880000e+07
  %26 = fdiv double %25, 8.640000e+07
  %27 = tail call noundef double @uprv_floor_77(double noundef %26)
  br label %28

28:                                               ; preds = %3, %24, %23
  %.0 = phi double [ %.1, %23 ], [ %27, %24 ], [ 0.000000e+00, %3 ]
  ret double %.0
}